; Function Attrs: nounwind uwtable
define dso_local void @lazyFreeTrackingTable(ptr noundef readonly captures(none) %0) #0 {
  %2 = load ptr, ptr %0, align 8, !tbaa !5
  %3 = getelementptr inbounds nuw i8, ptr %2, i64 8
  %4 = load i64, ptr %3, align 8, !tbaa !9
  tail call void @freeTrackingRadixTree(ptr noundef %2) #6
  %5 = atomicrmw sub ptr @lazyfree_objects, i64 %4 monotonic, align 8
  %6 = atomicrmw add ptr @lazyfreed_objects, i64 %4 monotonic, align 8
  ret void
}